target datalayout = "e-m:e-p270:32:32-p271:32:32-p272:64:64-i64:64-i128:128-f80:128-n8:16:32:64-S128"
target triple = "x86_64-pc-linux-gnu"

%"class.llvm::MachineInstr" = type <{ %"class.llvm::ilist_node_with_parent", ptr, ptr, ptr, [3 x i8], %"class.llvm::ArrayRecycler<llvm::MachineOperand>::Capacity", i32, %"class.llvm::PointerSumType", %"class.llvm::DebugLoc", i32, i16, [2 x i8] }>
%"class.llvm::ilist_node_with_parent" = type { %"class.llvm::ilist_node" }
%"class.llvm::ilist_node" = type { %"class.llvm::ilist_node_impl.148" }
%"class.llvm::ilist_node_impl.148" = type { %"class.llvm::ilist_node_base.149" }
%"class.llvm::ilist_node_base.149" = type { %"class.llvm::ilist_detail::node_base_prevnext.150" }
%"class.llvm::ilist_detail::node_base_prevnext.150" = type { %"class.llvm::PointerIntPair", ptr }
%"class.llvm::PointerIntPair" = type { %"struct.llvm::detail::PunnedPointer" }
%"struct.llvm::detail::PunnedPointer" = type { [8 x i8] }
%"class.llvm::ArrayRecycler<llvm::MachineOperand>::Capacity" = type { i8 }
%"class.llvm::PointerSumType" = type { %"union.llvm::PointerSumType<llvm::MachineInstr::ExtraInfoInlineKinds, llvm::PointerSumTypeMember<0, llvm::MachineMemOperand *>, llvm::PointerSumTypeMember<1, llvm::MCSymbol *>, llvm::PointerSumTypeMember<2, llvm::MCSymbol *>, llvm::PointerSumTypeMember<3, llvm::MachineInstr::ExtraInfo *>>::StorageT" }
%"union.llvm::PointerSumType<llvm::MachineInstr::ExtraInfoInlineKinds, llvm::PointerSumTypeMember<0, llvm::MachineMemOperand *>, llvm::PointerSumTypeMember<1, llvm::MCSymbol *>, llvm::PointerSumTypeMember<2, llvm::MCSymbol *>, llvm::PointerSumTypeMember<3, llvm::MachineInstr::ExtraInfo *>>::StorageT" = type { i64 }
%"class.llvm::DebugLoc" = type { %"class.llvm::TypedTrackingMDRef" }
%"class.llvm::TypedTrackingMDRef" = type { %"class.llvm::TrackingMDRef" }
%"class.llvm::TrackingMDRef" = type { ptr }

; Function Attrs: mustprogress nounwind uwtable
define linkonce_odr hidden noundef i32 @_ZNK4llvm12MachineInstr9getOpcodeEv(ptr noundef nonnull align 8 dereferenceable(70) %0) #0 comdat align 2 {
  %2 = alloca ptr, align 8
  store ptr %0, ptr %2, align 8
  %3 = load ptr, ptr %2, align 8
  %4 = getelementptr inbounds nuw %"class.llvm::MachineInstr", ptr %3, i32 0, i32 10
  %5 = load i16, ptr %4, align 4
  %6 = zext i16 %5 to i32
  ret i32 %6
}

; Function Attrs: mustprogress nounwind uwtable
define dso_local noundef zeroext i1 @_ZN4llvm12X86InstrInfo19isDataInvariantLoadERNS_12MachineInstrE(ptr noundef nonnull align 8 dereferenceable(70) %0) #0 align 2 {
  %2 = alloca i1, align 1
  %3 = alloca ptr, align 8
  store ptr %0, ptr %3, align 8
  %4 = load ptr, ptr %3, align 8
  %5 = call noundef i32 @_ZNK4llvm12MachineInstr9getOpcodeEv(ptr noundef nonnull align 8 dereferenceable(70) %4)
  switch i32 %5, label %6 [
    i32 1742, label %7
    i32 1747, label %7
    i32 1770, label %7
    i32 1775, label %7
    i32 1798, label %7
    i32 1803, label %7
    i32 1024, label %7
    i32 1026, label %7
    i32 1028, label %7
    i32 1030, label %7
    i32 1032, label %7
    i32 1034, label %7
    i32 2241, label %7
    i32 2247, label %7
    i32 2253, label %7
    i32 3268, label %7
    i32 3274, label %7
    i32 3280, label %7
    i32 4922, label %7
    i32 4928, label %7
    i32 4934, label %7
    i32 950, label %7
    i32 952, label %7
    i32 954, label %7
    i32 956, label %7
    i32 958, label %7
    i32 960, label %7
    i32 962, label %7
    i32 964, label %7
    i32 966, label %7
    i32 968, label %7
    i32 978, label %7
    i32 980, label %7
    i32 982, label %7
    i32 988, label %7
    i32 994, label %7
    i32 996, label %7
    i32 998, label %7
    i32 1004, label %7
    i32 1010, label %7
    i32 1016, label %7
    i32 4940, label %7
    i32 4942, label %7
    i32 934, label %7
    i32 940, label %7
    i32 946, label %7
    i32 948, label %7
    i32 1087, label %7
    i32 1093, label %7
    i32 495, label %7
    i32 424, label %7
    i32 449, label %7
    i32 474, label %7
    i32 657, label %7
    i32 542, label %7
    i32 583, label %7
    i32 624, label %7
    i32 888, label %7
    i32 773, label %7
    i32 814, label %7
    i32 855, label %7
    i32 903, label %7
    i32 909, label %7
    i32 2994, label %7
    i32 2878, label %7
    i32 2920, label %7
    i32 2961, label %7
    i32 4139, label %7
    i32 4068, label %7
    i32 4093, label %7
    i32 4118, label %7
    i32 4772, label %7
    i32 4657, label %7
    i32 4698, label %7
    i32 4739, label %7
    i32 22233, label %7
    i32 22118, label %7
    i32 22159, label %7
    i32 22200, label %7
    i32 2748, label %7
    i32 2754, label %7
    i32 3893, label %7
    i32 3897, label %7
    i32 4043, label %7
    i32 4047, label %7
    i32 4364, label %7
    i32 4368, label %7
    i32 4552, label %7
    i32 4556, label %7
    i32 1434, label %7
    i32 8166, label %7
    i32 8161, label %7
    i32 1438, label %7
    i32 8175, label %7
    i32 8170, label %7
    i32 1442, label %7
    i32 8214, label %7
    i32 8209, label %7
    i32 1446, label %7
    i32 8223, label %7
    i32 8218, label %7
    i32 1402, label %7
    i32 7414, label %7
    i32 7410, label %7
    i32 1406, label %7
    i32 7428, label %7
    i32 7423, label %7
    i32 1410, label %7
    i32 7437, label %7
    i32 7432, label %7
    i32 1414, label %7
    i32 7451, label %7
    i32 7446, label %7
    i32 1418, label %7
    i32 7466, label %7
    i32 7455, label %7
    i32 1398, label %7
    i32 7366, label %7
    i32 7355, label %7
    i32 8179, label %7
    i32 8184, label %7
    i32 8227, label %7
    i32 8232, label %7
    i32 8429, label %7
    i32 8443, label %7
    i32 8438, label %7
    i32 8453, label %7
    i32 2564, label %7
    i32 2565, label %7
    i32 2508, label %7
    i32 2528, label %7
    i32 2545, label %7
    i32 2667, label %7
    i32 2671, label %7
    i32 2673, label %7
    i32 2674, label %7
    i32 2679, label %7
    i32 2680, label %7
    i32 2681, label %7
    i32 2695, label %7
    i32 2698, label %7
    i32 2699, label %7
    i32 2700, label %7
    i32 2704, label %7
    i32 2705, label %7
  ]

6:                                                ; preds = %1
  store i1 false, ptr %2, align 1
  br label %8

7:                                                ; preds = %1, %1, %1, %1, %1, %1, %1, %1, %1, %1, %1, %1, %1, %1, %1, %1, %1, %1, %1, %1, %1, %1, %1, %1, %1, %1, %1, %1, %1, %1, %1, %1, %1, %1, %1, %1, %1, %1, %1, %1, %1, %1, %1, %1, %1, %1, %1, %1, %1, %1, %1, %1, %1, %1, %1, %1, %1, %1, %1, %1, %1, %1, %1, %1, %1, %1, %1, %1, %1, %1, %1, %1, %1, %1, %1, %1, %1, %1, %1, %1, %1, %1, %1, %1, %1, %1, %1, %1, %1, %1, %1, %1, %1, %1, %1, %1, %1, %1, %1, %1, %1, %1, %1, %1, %1, %1, %1, %1, %1, %1, %1, %1, %1, %1, %1, %1, %1, %1, %1, %1, %1, %1, %1, %1, %1, %1, %1, %1, %1, %1, %1, %1, %1, %1, %1, %1, %1, %1, %1, %1, %1, %1, %1, %1, %1
  store i1 true, ptr %2, align 1
  br label %8

8:                                                ; preds = %7, %6
  %9 = load i1, ptr %2, align 1
  ret i1 %9
}