; Function Attrs: mustprogress nofree norecurse nosync nounwind willreturn memory(argmem: read) uwtable
define dso_local noundef zeroext i1 @_ZN4llvm12X86InstrInfo19isDataInvariantLoadERNS_12MachineInstrE(ptr noundef nonnull readonly align 8 captures(none) dereferenceable(70) %0) local_unnamed_addr #7 align 2 {
  %2 = getelementptr inbounds nuw i8, ptr %0, i64 68
  %3 = load i16, ptr %2, align 4
  switch i16 %3, label %5 [
    i16 1742, label %4
    i16 1747, label %4
    i16 1770, label %4
    i16 1775, label %4
    i16 1798, label %4
    i16 1803, label %4
    i16 1024, label %4
    i16 1026, label %4
    i16 1028, label %4
    i16 1030, label %4
    i16 1032, label %4
    i16 1034, label %4
    i16 2241, label %4
    i16 2247, label %4
    i16 2253, label %4
    i16 3268, label %4
    i16 3274, label %4
    i16 3280, label %4
    i16 4922, label %4
    i16 4928, label %4
    i16 4934, label %4
    i16 950, label %4
    i16 952, label %4
    i16 954, label %4
    i16 956, label %4
    i16 958, label %4
    i16 960, label %4
    i16 962, label %4
    i16 964, label %4
    i16 966, label %4
    i16 968, label %4
    i16 978, label %4
    i16 980, label %4
    i16 982, label %4
    i16 988, label %4
    i16 994, label %4
    i16 996, label %4
    i16 998, label %4
    i16 1004, label %4
    i16 1010, label %4
    i16 1016, label %4
    i16 4940, label %4
    i16 4942, label %4
    i16 934, label %4
    i16 940, label %4
    i16 946, label %4
    i16 948, label %4
    i16 1087, label %4
    i16 1093, label %4
    i16 495, label %4
    i16 424, label %4
    i16 449, label %4
    i16 474, label %4
    i16 657, label %4
    i16 542, label %4
    i16 583, label %4
    i16 624, label %4
    i16 888, label %4
    i16 773, label %4
    i16 814, label %4
    i16 855, label %4
    i16 903, label %4
    i16 909, label %4
    i16 2994, label %4
    i16 2878, label %4
    i16 2920, label %4
    i16 2961, label %4
    i16 4139, label %4
    i16 4068, label %4
    i16 4093, label %4
    i16 4118, label %4
    i16 4772, label %4
    i16 4657, label %4
    i16 4698, label %4
    i16 4739, label %4
    i16 22233, label %4
    i16 22118, label %4
    i16 22159, label %4
    i16 22200, label %4
    i16 2748, label %4
    i16 2754, label %4
    i16 3893, label %4
    i16 3897, label %4
    i16 4043, label %4
    i16 4047, label %4
    i16 4364, label %4
    i16 4368, label %4
    i16 4552, label %4
    i16 4556, label %4
    i16 1434, label %4
    i16 8166, label %4
    i16 8161, label %4
    i16 1438, label %4
    i16 8175, label %4
    i16 8170, label %4
    i16 1442, label %4
    i16 8214, label %4
    i16 8209, label %4
    i16 1446, label %4
    i16 8223, label %4
    i16 8218, label %4
    i16 1402, label %4
    i16 7414, label %4
    i16 7410, label %4
    i16 1406, label %4
    i16 7428, label %4
    i16 7423, label %4
    i16 1410, label %4
    i16 7437, label %4
    i16 7432, label %4
    i16 1414, label %4
    i16 7451, label %4
    i16 7446, label %4
    i16 1418, label %4
    i16 7466, label %4
    i16 7455, label %4
    i16 1398, label %4
    i16 7366, label %4
    i16 7355, label %4
    i16 8179, label %4
    i16 8184, label %4
    i16 8227, label %4
    i16 8232, label %4
    i16 8429, label %4
    i16 8443, label %4
    i16 8438, label %4
    i16 8453, label %4
    i16 2564, label %4
    i16 2565, label %4
    i16 2508, label %4
    i16 2528, label %4
    i16 2545, label %4
    i16 2667, label %4
    i16 2671, label %4
    i16 2673, label %4
    i16 2674, label %4
    i16 2679, label %4
    i16 2680, label %4
    i16 2681, label %4
    i16 2695, label %4
    i16 2698, label %4
    i16 2699, label %4
    i16 2700, label %4
    i16 2704, label %4
    i16 2705, label %4
  ]

4:                                                ; preds = %1, %1, %1, %1, %1, %1, %1, %1, %1, %1, %1, %1, %1, %1, %1, %1, %1, %1, %1, %1, %1, %1, %1, %1, %1, %1, %1, %1, %1, %1, %1, %1, %1, %1, %1, %1, %1, %1, %1, %1, %1, %1, %1, %1, %1, %1, %1, %1, %1, %1, %1, %1, %1, %1, %1, %1, %1, %1, %1, %1, %1, %1, %1, %1, %1, %1, %1, %1, %1, %1, %1, %1, %1, %1, %1, %1, %1, %1, %1, %1, %1, %1, %1, %1, %1, %1, %1, %1, %1, %1, %1, %1, %1, %1, %1, %1, %1, %1, %1, %1, %1, %1, %1, %1, %1, %1, %1, %1, %1, %1, %1, %1, %1, %1, %1, %1, %1, %1, %1, %1, %1, %1, %1, %1, %1, %1, %1, %1, %1, %1, %1, %1, %1, %1, %1, %1, %1, %1, %1, %1, %1, %1, %1, %1, %1
  br label %5

5:                                                ; preds = %1, %4
  %.0 = phi i1 [ true, %4 ], [ false, %1 ]
  ret i1 %.0
}